target datalayout = "e-m:e-p270:32:32-p271:32:32-p272:64:64-i64:64-i128:128-f80:128-n8:16:32:64-S128"
target triple = "x86_64-pc-linux-gnu"

%struct.PaUtilHostApiRepresentation = type { %struct.PaUtilPrivatePaFrontHostApiInfo, %struct.PaHostApiInfo, ptr, ptr, ptr, ptr }
%struct.PaUtilPrivatePaFrontHostApiInfo = type { i64 }
%struct.PaHostApiInfo = type { i32, i32, ptr, i32, i32, i32 }

@initializationCount_ = internal global i32 0, align 4
@hostApisCount_ = internal global i32 0, align 4
@hostApis_ = internal global ptr null, align 8

; Function Attrs: nounwind uwtable
define i32 @PaUtil_GetHostApiRepresentation(ptr noundef %0, i32 noundef %1) #0 {
  %3 = alloca ptr, align 8
  %4 = alloca i32, align 4
  %5 = alloca i32, align 4
  %6 = alloca i32, align 4
  store ptr %0, ptr %3, align 8
  store i32 %1, ptr %4, align 4
  %7 = load i32, ptr @initializationCount_, align 4
  %8 = icmp ne i32 %7, 0
  br i1 %8, label %10, label %9

9:                                                ; preds = %2
  store i32 -10000, ptr %5, align 4
  br label %38

10:                                               ; preds = %2
  store i32 -9979, ptr %5, align 4
  store i32 0, ptr %6, align 4
  br label %11

11:                                               ; preds = %34, %10
  %12 = load i32, ptr %6, align 4
  %13 = load i32, ptr @hostApisCount_, align 4
  %14 = icmp slt i32 %12, %13
  br i1 %14, label %15, label %37

15:                                               ; preds = %11
  %16 = load ptr, ptr @hostApis_, align 8
  %17 = load i32, ptr %6, align 4
  %18 = sext i32 %17 to i64
  %19 = getelementptr inbounds ptr, ptr %16, i64 %18
  %20 = load ptr, ptr %19, align 8
  %21 = getelementptr inbounds nuw %struct.PaUtilHostApiRepresentation, ptr %20, i32 0, i32 1
  %22 = getelementptr inbounds nuw %struct.PaHostApiInfo, ptr %21, i32 0, i32 1
  %23 = load i32, ptr %22, align 4
  %24 = load i32, ptr %4, align 4
  %25 = icmp eq i32 %23, %24
  br i1 %25, label %26, label %33

26:                                               ; preds = %15
  %27 = load ptr, ptr @hostApis_, align 8
  %28 = load i32, ptr %6, align 4
  %29 = sext i32 %28 to i64
  %30 = getelementptr inbounds ptr, ptr %27, i64 %29
  %31 = load ptr, ptr %30, align 8
  %32 = load ptr, ptr %3, align 8
  store ptr %31, ptr %32, align 8
  store i32 0, ptr %5, align 4
  br label %37

33:                                               ; preds = %15
  br label %34

34:                                               ; preds = %33
  %35 = load i32, ptr %6, align 4
  %36 = add nsw i32 %35, 1
  store i32 %36, ptr %6, align 4
  br label %11, !llvm.loop !9

37:                                               ; preds = %26, %11
  br label %38

38:                                               ; preds = %37, %9
  %39 = load i32, ptr %5, align 4
  ret i32 %39
}