; Function Attrs: nofree norecurse nosync nounwind memory(read, argmem: readwrite, inaccessiblemem: none) uwtable
define range(i32 -10000, 1) i32 @PaUtil_GetHostApiRepresentation(ptr nocapture noundef writeonly %0, i32 noundef %1) local_unnamed_addr #6 {
  %3 = load i32, ptr @initializationCount_, align 4
  %.not = icmp eq i32 %3, 0
  br i1 %.not, label %.loopexit, label %.preheader

.preheader:                                       ; preds = %2
  %4 = load i32, ptr @hostApisCount_, align 4
  %5 = icmp sgt i32 %4, 0
  br i1 %5, label %.lr.ph, label %.loopexit

.lr.ph:                                           ; preds = %.preheader
  %6 = load ptr, ptr @hostApis_, align 8
  %wide.trip.count = zext nneg i32 %4 to i64
  br label %8

7:                                                ; preds = %8
  %indvars.iv.next = add nuw nsw i64 %indvars.iv, 1
  %exitcond.not = icmp eq i64 %indvars.iv.next, %wide.trip.count
  br i1 %exitcond.not, label %.loopexit, label %8, !llvm.loop !11

8:                                                ; preds = %.lr.ph, %7
  %indvars.iv = phi i64 [ 0, %.lr.ph ], [ %indvars.iv.next, %7 ]
  %9 = getelementptr inbounds ptr, ptr %6, i64 %indvars.iv
  %10 = load ptr, ptr %9, align 8
  %11 = getelementptr inbounds i8, ptr %10, i64 12
  %12 = load i32, ptr %11, align 4
  %13 = icmp eq i32 %12, %1
  br i1 %13, label %14, label %7

14:                                               ; preds = %8
  store ptr %10, ptr %0, align 8
  br label %.loopexit

.loopexit:                                        ; preds = %7, %.preheader, %2, %14
  %.06 = phi i32 [ 0, %14 ], [ -10000, %2 ], [ -9979, %.preheader ], [ -9979, %7 ]
  ret i32 %.06
}